target datalayout = "e-m:e-p270:32:32-p271:32:32-p272:64:64-i64:64-i128:128-f80:128-n8:16:32:64-S128"
target triple = "x86_64-pc-linux-gnu"

%struct.Vec_Int_t_ = type { i32, i32, ptr }
%struct.Vec_Str_t_ = type { i32, i32, ptr }
%struct.Vec_Ptr_t_ = type { i32, i32, ptr }
%struct.Cba_Ntk_t_ = type { ptr, i32, i32, i32, i8, %struct.Vec_Int_t_, %struct.Vec_Int_t_, %struct.Vec_Int_t_, %struct.Vec_Int_t_, %struct.Vec_Str_t_, %struct.Vec_Int_t_, %struct.Vec_Int_t_, %struct.Vec_Int_t_, %struct.Vec_Int_t_, %struct.Vec_Int_t_, %struct.Vec_Int_t_, %struct.Vec_Int_t_, %struct.Vec_Int_t_, %struct.Vec_Int_t_, %struct.Vec_Int_t_, %struct.Vec_Int_t_, %struct.Vec_Int_t_, %struct.Vec_Int_t_, %struct.Vec_Int_t_, %struct.Vec_Int_t_, %struct.Vec_Int_t_, %struct.Vec_Int_t_, %struct.Vec_Int_t_, ptr, %struct.Vec_Int_t_, %struct.Vec_Int_t_ }
%struct.Cba_Man_t_ = type { ptr, ptr, ptr, ptr, ptr, ptr, %struct.Vec_Int_t_, %struct.Vec_Int_t_, %struct.Vec_Int_t_, %struct.Vec_Int_t_, [90 x ptr], [90 x i32], [90 x i32], i32, %struct.Vec_Ptr_t_, i32, %struct.Vec_Str_t_, %struct.Vec_Str_t_, ptr }

@.str.56 = private unnamed_addr constant [5 x i8] c"\\%s \00", align 1

; Function Attrs: inlinehint nounwind uwtable
define internal void @Vec_IntGrow(ptr noundef %0, i32 noundef %1) #3 {
  %3 = alloca ptr, align 8
  %4 = alloca i32, align 4
  store ptr %0, ptr %3, align 8, !tbaa !29
  store i32 %1, ptr %4, align 4, !tbaa !12
  %5 = load ptr, ptr %3, align 8, !tbaa !29
  %6 = getelementptr inbounds nuw %struct.Vec_Int_t_, ptr %5, i32 0, i32 0
  %7 = load i32, ptr %6, align 8, !tbaa !96
  %8 = load i32, ptr %4, align 4, !tbaa !12
  %9 = icmp sge i32 %7, %8
  br i1 %9, label %10, label %11

10:                                               ; preds = %2
  br label %36

11:                                               ; preds = %2
  %12 = load ptr, ptr %3, align 8, !tbaa !29
  %13 = getelementptr inbounds nuw %struct.Vec_Int_t_, ptr %12, i32 0, i32 2
  %14 = load ptr, ptr %13, align 8, !tbaa !33
  %15 = icmp ne ptr %14, null
  br i1 %15, label %16, label %24

16:                                               ; preds = %11
  %17 = load ptr, ptr %3, align 8, !tbaa !29
  %18 = getelementptr inbounds nuw %struct.Vec_Int_t_, ptr %17, i32 0, i32 2
  %19 = load ptr, ptr %18, align 8, !tbaa !33
  %20 = load i32, ptr %4, align 4, !tbaa !12
  %21 = sext i32 %20 to i64
  %22 = mul i64 4, %21
  %23 = call ptr @realloc(ptr noundef %19, i64 noundef %22) #14
  br label %29

24:                                               ; preds = %11
  %25 = load i32, ptr %4, align 4, !tbaa !12
  %26 = sext i32 %25 to i64
  %27 = mul i64 4, %26
  %28 = call noalias ptr @malloc(i64 noundef %27) #15
  br label %29

29:                                               ; preds = %24, %16
  %30 = phi ptr [ %23, %16 ], [ %28, %24 ]
  %31 = load ptr, ptr %3, align 8, !tbaa !29
  %32 = getelementptr inbounds nuw %struct.Vec_Int_t_, ptr %31, i32 0, i32 2
  store ptr %30, ptr %32, align 8, !tbaa !33
  %33 = load i32, ptr %4, align 4, !tbaa !12
  %34 = load ptr, ptr %3, align 8, !tbaa !29
  %35 = getelementptr inbounds nuw %struct.Vec_Int_t_, ptr %34, i32 0, i32 0
  store i32 %33, ptr %35, align 8, !tbaa !96
  br label %36

36:                                               ; preds = %29, %10
  ret void
}

; Function Attrs: inlinehint nounwind uwtable
define internal void @Vec_IntFillExtra(ptr noundef %0, i32 noundef %1, i32 noundef %2) #3 {
  %4 = alloca ptr, align 8
  %5 = alloca i32, align 4
  %6 = alloca i32, align 4
  %7 = alloca i32, align 4
  %8 = alloca i32, align 4
  store ptr %0, ptr %4, align 8, !tbaa !29
  store i32 %1, ptr %5, align 4, !tbaa !12
  store i32 %2, ptr %6, align 4, !tbaa !12
  call void @llvm.lifetime.start.p0(i64 4, ptr %7) #12
  %9 = load i32, ptr %5, align 4, !tbaa !12
  %10 = load ptr, ptr %4, align 8, !tbaa !29
  %11 = getelementptr inbounds nuw %struct.Vec_Int_t_, ptr %10, i32 0, i32 1
  %12 = load i32, ptr %11, align 4, !tbaa !32
  %13 = icmp sle i32 %9, %12
  br i1 %13, label %14, label %15

14:                                               ; preds = %3
  store i32 1, ptr %8, align 4
  br label %61

15:                                               ; preds = %3
  %16 = load i32, ptr %5, align 4, !tbaa !12
  %17 = load ptr, ptr %4, align 8, !tbaa !29
  %18 = getelementptr inbounds nuw %struct.Vec_Int_t_, ptr %17, i32 0, i32 0
  %19 = load i32, ptr %18, align 8, !tbaa !96
  %20 = mul nsw i32 2, %19
  %21 = icmp sgt i32 %16, %20
  br i1 %21, label %22, label %25

22:                                               ; preds = %15
  %23 = load ptr, ptr %4, align 8, !tbaa !29
  %24 = load i32, ptr %5, align 4, !tbaa !12
  call void @Vec_IntGrow(ptr noundef %23, i32 noundef %24)
  br label %38

25:                                               ; preds = %15
  %26 = load i32, ptr %5, align 4, !tbaa !12
  %27 = load ptr, ptr %4, align 8, !tbaa !29
  %28 = getelementptr inbounds nuw %struct.Vec_Int_t_, ptr %27, i32 0, i32 0
  %29 = load i32, ptr %28, align 8, !tbaa !96
  %30 = icmp sgt i32 %26, %29
  br i1 %30, label %31, label %37

31:                                               ; preds = %25
  %32 = load ptr, ptr %4, align 8, !tbaa !29
  %33 = load ptr, ptr %4, align 8, !tbaa !29
  %34 = getelementptr inbounds nuw %struct.Vec_Int_t_, ptr %33, i32 0, i32 0
  %35 = load i32, ptr %34, align 8, !tbaa !96
  %36 = mul nsw i32 2, %35
  call void @Vec_IntGrow(ptr noundef %32, i32 noundef %36)
  br label %37

37:                                               ; preds = %31, %25
  br label %38

38:                                               ; preds = %37, %22
  %39 = load ptr, ptr %4, align 8, !tbaa !29
  %40 = getelementptr inbounds nuw %struct.Vec_Int_t_, ptr %39, i32 0, i32 1
  %41 = load i32, ptr %40, align 4, !tbaa !32
  store i32 %41, ptr %7, align 4, !tbaa !12
  br label %42

42:                                               ; preds = %54, %38
  %43 = load i32, ptr %7, align 4, !tbaa !12
  %44 = load i32, ptr %5, align 4, !tbaa !12
  %45 = icmp slt i32 %43, %44
  br i1 %45, label %46, label %57

46:                                               ; preds = %42
  %47 = load i32, ptr %6, align 4, !tbaa !12
  %48 = load ptr, ptr %4, align 8, !tbaa !29
  %49 = getelementptr inbounds nuw %struct.Vec_Int_t_, ptr %48, i32 0, i32 2
  %50 = load ptr, ptr %49, align 8, !tbaa !33
  %51 = load i32, ptr %7, align 4, !tbaa !12
  %52 = sext i32 %51 to i64
  %53 = getelementptr inbounds i32, ptr %50, i64 %52
  store i32 %47, ptr %53, align 4, !tbaa !12
  br label %54

54:                                               ; preds = %46
  %55 = load i32, ptr %7, align 4, !tbaa !12
  %56 = add nsw i32 %55, 1
  store i32 %56, ptr %7, align 4, !tbaa !12
  br label %42, !llvm.loop !103

57:                                               ; preds = %42
  %58 = load i32, ptr %5, align 4, !tbaa !12
  %59 = load ptr, ptr %4, align 8, !tbaa !29
  %60 = getelementptr inbounds nuw %struct.Vec_Int_t_, ptr %59, i32 0, i32 1
  store i32 %58, ptr %60, align 4, !tbaa !32
  store i32 0, ptr %8, align 4
  br label %61

61:                                               ; preds = %57, %14
  call void @llvm.lifetime.end.p0(i64 4, ptr %7) #12
  %62 = load i32, ptr %8, align 4
  switch i32 %62, label %64 [
    i32 0, label %63
    i32 1, label %63
  ]

63:                                               ; preds = %61, %61
  ret void

64:                                               ; preds = %61
  unreachable
}

; Function Attrs: inlinehint nounwind uwtable
define internal i32 @Vec_IntGetEntry(ptr noundef %0, i32 noundef %1) #3 {
  %3 = alloca ptr, align 8
  %4 = alloca i32, align 4
  store ptr %0, ptr %3, align 8, !tbaa !29
  store i32 %1, ptr %4, align 4, !tbaa !12
  %5 = load ptr, ptr %3, align 8, !tbaa !29
  %6 = load i32, ptr %4, align 4, !tbaa !12
  %7 = add nsw i32 %6, 1
  call void @Vec_IntFillExtra(ptr noundef %5, i32 noundef %7, i32 noundef 0)
  %8 = load ptr, ptr %3, align 8, !tbaa !29
  %9 = load i32, ptr %4, align 4, !tbaa !12
  %10 = call i32 @Vec_IntEntry(ptr noundef %8, i32 noundef %9)
  ret i32 %10
}

; Function Attrs: inlinehint nounwind uwtable
define internal signext i8 @Vec_StrEntry(ptr noundef %0, i32 noundef %1) #3 {
  %3 = alloca ptr, align 8
  %4 = alloca i32, align 4
  store ptr %0, ptr %3, align 8, !tbaa !23
  store i32 %1, ptr %4, align 4, !tbaa !12
  %5 = load ptr, ptr %3, align 8, !tbaa !23
  %6 = getelementptr inbounds nuw %struct.Vec_Str_t_, ptr %5, i32 0, i32 2
  %7 = load ptr, ptr %6, align 8, !tbaa !55
  %8 = load i32, ptr %4, align 4, !tbaa !12
  %9 = sext i32 %8 to i64
  %10 = getelementptr inbounds i8, ptr %7, i64 %9
  %11 = load i8, ptr %10, align 1, !tbaa !20
  ret i8 %11
}

; Function Attrs: inlinehint nounwind uwtable
define internal i32 @Vec_IntEntry(ptr noundef %0, i32 noundef %1) #3 {
  %3 = alloca ptr, align 8
  %4 = alloca i32, align 4
  store ptr %0, ptr %3, align 8, !tbaa !29
  store i32 %1, ptr %4, align 4, !tbaa !12
  %5 = load ptr, ptr %3, align 8, !tbaa !29
  %6 = getelementptr inbounds nuw %struct.Vec_Int_t_, ptr %5, i32 0, i32 2
  %7 = load ptr, ptr %6, align 8, !tbaa !33
  %8 = load i32, ptr %4, align 4, !tbaa !12
  %9 = sext i32 %8 to i64
  %10 = getelementptr inbounds i32, ptr %7, i64 %9
  %11 = load i32, ptr %10, align 4, !tbaa !12
  ret i32 %11
}

; Function Attrs: inlinehint nounwind uwtable
define internal i32 @Cba_FonIsReal(i32 noundef %0) #3 {
  %2 = alloca i32, align 4
  store i32 %0, ptr %2, align 4, !tbaa !12
  %3 = load i32, ptr %2, align 4, !tbaa !12
  %4 = icmp sgt i32 %3, 0
  %5 = zext i1 %4 to i32
  ret i32 %5
}

; Function Attrs: inlinehint nounwind uwtable
define internal ptr @Cba_NtkNam(ptr noundef %0) #3 {
  %2 = alloca ptr, align 8
  store ptr %0, ptr %2, align 8, !tbaa !43
  %3 = load ptr, ptr %2, align 8, !tbaa !43
  %4 = getelementptr inbounds nuw %struct.Cba_Ntk_t_, ptr %3, i32 0, i32 0
  %5 = load ptr, ptr %4, align 8, !tbaa !46
  %6 = getelementptr inbounds nuw %struct.Cba_Man_t_, ptr %5, i32 0, i32 2
  %7 = load ptr, ptr %6, align 8, !tbaa !49
  ret ptr %7
}

; Function Attrs: inlinehint nounwind uwtable
define internal i32 @Cba_NameIsLegalInVerilog(ptr noundef %0, i32 noundef %1) #3 {
  %3 = alloca i32, align 4
  %4 = alloca ptr, align 8
  %5 = alloca i32, align 4
  store ptr %0, ptr %4, align 8, !tbaa !8
  store i32 %1, ptr %5, align 4, !tbaa !12
  %6 = load ptr, ptr %4, align 8, !tbaa !8
  %7 = load i8, ptr %6, align 1, !tbaa !20
  %8 = sext i8 %7 to i32
  %9 = icmp eq i32 %8, 92
  br i1 %9, label %10, label %11

10:                                               ; preds = %2
  store i32 1, ptr %3, align 4
  br label %90

11:                                               ; preds = %2
  %12 = load i32, ptr %5, align 4, !tbaa !12
  %13 = icmp slt i32 %12, 13
  br i1 %13, label %14, label %15

14:                                               ; preds = %11
  store i32 0, ptr %3, align 4
  br label %90

15:                                               ; preds = %11
  %16 = load ptr, ptr %4, align 8, !tbaa !8
  %17 = load i8, ptr %16, align 1, !tbaa !20
  %18 = sext i8 %17 to i32
  %19 = icmp slt i32 %18, 97
  br i1 %19, label %25, label %20

20:                                               ; preds = %15
  %21 = load ptr, ptr %4, align 8, !tbaa !8
  %22 = load i8, ptr %21, align 1, !tbaa !20
  %23 = sext i8 %22 to i32
  %24 = icmp sgt i32 %23, 122
  br i1 %24, label %25, label %41

25:                                               ; preds = %20, %15
  %26 = load ptr, ptr %4, align 8, !tbaa !8
  %27 = load i8, ptr %26, align 1, !tbaa !20
  %28 = sext i8 %27 to i32
  %29 = icmp slt i32 %28, 65
  br i1 %29, label %35, label %30

30:                                               ; preds = %25
  %31 = load ptr, ptr %4, align 8, !tbaa !8
  %32 = load i8, ptr %31, align 1, !tbaa !20
  %33 = sext i8 %32 to i32
  %34 = icmp sgt i32 %33, 90
  br i1 %34, label %35, label %41

35:                                               ; preds = %30, %25
  %36 = load ptr, ptr %4, align 8, !tbaa !8
  %37 = load i8, ptr %36, align 1, !tbaa !20
  %38 = sext i8 %37 to i32
  %39 = icmp ne i32 %38, 95
  br i1 %39, label %40, label %41

40:                                               ; preds = %35
  store i32 0, ptr %3, align 4
  br label %90

41:                                               ; preds = %35, %30, %20
  br label %42

42:                                               ; preds = %88, %41
  %43 = load ptr, ptr %4, align 8, !tbaa !8
  %44 = getelementptr inbounds nuw i8, ptr %43, i32 1
  store ptr %44, ptr %4, align 8, !tbaa !8
  %45 = load i8, ptr %44, align 1, !tbaa !20
  %46 = icmp ne i8 %45, 0
  br i1 %46, label %47, label %89

47:                                               ; preds = %42
  %48 = load ptr, ptr %4, align 8, !tbaa !8
  %49 = load i8, ptr %48, align 1, !tbaa !20
  %50 = sext i8 %49 to i32
  %51 = icmp slt i32 %50, 97
  br i1 %51, label %57, label %52

52:                                               ; preds = %47
  %53 = load ptr, ptr %4, align 8, !tbaa !8
  %54 = load i8, ptr %53, align 1, !tbaa !20
  %55 = sext i8 %54 to i32
  %56 = icmp sgt i32 %55, 122
  br i1 %56, label %57, label %88

57:                                               ; preds = %52, %47
  %58 = load ptr, ptr %4, align 8, !tbaa !8
  %59 = load i8, ptr %58, align 1, !tbaa !20
  %60 = sext i8 %59 to i32
  %61 = icmp slt i32 %60, 65
  br i1 %61, label %67, label %62

62:                                               ; preds = %57
  %63 = load ptr, ptr %4, align 8, !tbaa !8
  %64 = load i8, ptr %63, align 1, !tbaa !20
  %65 = sext i8 %64 to i32
  %66 = icmp sgt i32 %65, 90
  br i1 %66, label %67, label %88

67:                                               ; preds = %62, %57
  %68 = load ptr, ptr %4, align 8, !tbaa !8
  %69 = load i8, ptr %68, align 1, !tbaa !20
  %70 = sext i8 %69 to i32
  %71 = icmp slt i32 %70, 48
  br i1 %71, label %77, label %72

72:                                               ; preds = %67
  %73 = load ptr, ptr %4, align 8, !tbaa !8
  %74 = load i8, ptr %73, align 1, !tbaa !20
  %75 = sext i8 %74 to i32
  %76 = icmp sgt i32 %75, 57
  br i1 %76, label %77, label %88

77:                                               ; preds = %72, %67
  %78 = load ptr, ptr %4, align 8, !tbaa !8
  %79 = load i8, ptr %78, align 1, !tbaa !20
  %80 = sext i8 %79 to i32
  %81 = icmp ne i32 %80, 95
  br i1 %81, label %82, label %88

82:                                               ; preds = %77
  %83 = load ptr, ptr %4, align 8, !tbaa !8
  %84 = load i8, ptr %83, align 1, !tbaa !20
  %85 = sext i8 %84 to i32
  %86 = icmp ne i32 %85, 36
  br i1 %86, label %87, label %88

87:                                               ; preds = %82
  store i32 0, ptr %3, align 4
  br label %90

88:                                               ; preds = %82, %77, %72, %62, %52
  br label %42, !llvm.loop !45

89:                                               ; preds = %42
  store i32 1, ptr %3, align 4
  br label %90

90:                                               ; preds = %89, %87, %40, %14, %10
  %91 = load i32, ptr %3, align 4
  ret i32 %91
}

; Function Attrs: inlinehint nounwind uwtable
define internal i32 @Cba_FonName(ptr noundef %0, i32 noundef %1) #3 {
  %3 = alloca ptr, align 8
  %4 = alloca i32, align 4
  store ptr %0, ptr %3, align 8, !tbaa !43
  store i32 %1, ptr %4, align 4, !tbaa !12
  %5 = load ptr, ptr %3, align 8, !tbaa !43
  %6 = getelementptr inbounds nuw %struct.Cba_Ntk_t_, ptr %5, i32 0, i32 20
  %7 = load i32, ptr %4, align 4, !tbaa !12
  %8 = call i32 @Vec_IntGetEntry(ptr noundef %6, i32 noundef %7)
  ret i32 %8
}

; Function Attrs: inlinehint nounwind uwtable
define internal i32 @Cba_ObjType(ptr noundef %0, i32 noundef %1) #3 {
  %3 = alloca ptr, align 8
  %4 = alloca i32, align 4
  store ptr %0, ptr %3, align 8, !tbaa !43
  store i32 %1, ptr %4, align 4, !tbaa !12
  %5 = load ptr, ptr %3, align 8, !tbaa !43
  %6 = getelementptr inbounds nuw %struct.Cba_Ntk_t_, ptr %5, i32 0, i32 9
  %7 = load i32, ptr %4, align 4, !tbaa !12
  %8 = call signext i8 @Vec_StrEntry(ptr noundef %6, i32 noundef %7)
  %9 = zext i8 %8 to i32
  ret i32 %9
}

; Function Attrs: inlinehint nounwind uwtable
define internal i32 @Cba_FonObj(ptr noundef %0, i32 noundef %1) #3 {
  %3 = alloca ptr, align 8
  %4 = alloca i32, align 4
  store ptr %0, ptr %3, align 8, !tbaa !43
  store i32 %1, ptr %4, align 4, !tbaa !12
  %5 = load i32, ptr %4, align 4, !tbaa !12
  %6 = call i32 @Cba_FonIsReal(i32 noundef %5)
  %7 = icmp ne i32 %6, 0
  br i1 %7, label %8, label %13

8:                                                ; preds = %2
  %9 = load ptr, ptr %3, align 8, !tbaa !43
  %10 = getelementptr inbounds nuw %struct.Cba_Ntk_t_, ptr %9, i32 0, i32 13
  %11 = load i32, ptr %4, align 4, !tbaa !12
  %12 = call i32 @Vec_IntEntry(ptr noundef %10, i32 noundef %11)
  br label %14

13:                                               ; preds = %2
  br label %14

14:                                               ; preds = %13, %8
  %15 = phi i32 [ %12, %8 ], [ 0, %13 ]
  ret i32 %15
}

; Function Attrs: nounwind uwtable
define ptr @Cba_FonGetName(ptr noundef %0, i32 noundef %1) #0 {
  %3 = alloca ptr, align 8
  %4 = alloca ptr, align 8
  %5 = alloca i32, align 4
  %6 = alloca ptr, align 8
  %7 = alloca i32, align 4
  store ptr %0, ptr %4, align 8, !tbaa !43
  store i32 %1, ptr %5, align 4, !tbaa !12
  call void @llvm.lifetime.start.p0(i64 8, ptr %6) #12
  %8 = load ptr, ptr %4, align 8, !tbaa !43
  %9 = load i32, ptr %5, align 4, !tbaa !12
  %10 = call ptr @Cba_FonNameStr(ptr noundef %8, i32 noundef %9)
  store ptr %10, ptr %6, align 8, !tbaa !8
  %11 = load ptr, ptr %6, align 8, !tbaa !8
  %12 = icmp eq ptr %11, null
  br i1 %12, label %13, label %15

13:                                               ; preds = %2
  %14 = load ptr, ptr %6, align 8, !tbaa !8
  store ptr %14, ptr %3, align 8
  store i32 1, ptr %7, align 4
  br label %39

15:                                               ; preds = %2
  %16 = load ptr, ptr %4, align 8, !tbaa !43
  %17 = load ptr, ptr %4, align 8, !tbaa !43
  %18 = load i32, ptr %5, align 4, !tbaa !12
  %19 = call i32 @Cba_FonObj(ptr noundef %17, i32 noundef %18)
  %20 = call i32 @Cba_ObjType(ptr noundef %16, i32 noundef %19)
  %21 = icmp eq i32 %20, 88
  br i1 %21, label %22, label %24

22:                                               ; preds = %15
  %23 = load ptr, ptr %6, align 8, !tbaa !8
  store ptr %23, ptr %3, align 8
  store i32 1, ptr %7, align 4
  br label %39

24:                                               ; preds = %15
  %25 = load ptr, ptr %6, align 8, !tbaa !8
  %26 = load ptr, ptr %4, align 8, !tbaa !43
  %27 = load i32, ptr %5, align 4, !tbaa !12
  %28 = call i32 @Cba_FonName(ptr noundef %26, i32 noundef %27)
  %29 = call i32 @Cba_NameIsLegalInVerilog(ptr noundef %25, i32 noundef %28)
  %30 = icmp ne i32 %29, 0
  br i1 %30, label %31, label %33

31:                                               ; preds = %24
  %32 = load ptr, ptr %6, align 8, !tbaa !8
  store ptr %32, ptr %3, align 8
  store i32 1, ptr %7, align 4
  br label %39

33:                                               ; preds = %24
  %34 = load ptr, ptr %4, align 8, !tbaa !43
  %35 = call ptr @Cba_NtkNam(ptr noundef %34)
  %36 = call ptr @Abc_NamBuffer(ptr noundef %35)
  %37 = load ptr, ptr %6, align 8, !tbaa !8
  %38 = call ptr (ptr, ptr, ...) @Vec_StrPrintF(ptr noundef %36, ptr noundef @.str.56, ptr noundef %37)
  store ptr %38, ptr %3, align 8
  store i32 1, ptr %7, align 4
  br label %39

39:                                               ; preds = %33, %31, %22, %13
  call void @llvm.lifetime.end.p0(i64 8, ptr %6) #12
  %40 = load ptr, ptr %3, align 8
  ret ptr %40
}