; Function Attrs: nounwind uwtable
define ptr @Cba_FonGetName(ptr noundef captures(none) %0, i32 noundef %1) local_unnamed_addr #2 {
  %3 = tail call fastcc ptr @Cba_FonNameStr(ptr noundef %0, i32 noundef %1)
  %4 = icmp eq ptr %3, null
  br i1 %4, label %Cba_NameIsLegalInVerilog.exit, label %5

5:                                                ; preds = %2
  %6 = icmp slt i32 %1, 1
  br i1 %6, label %Cba_FonObj.exit, label %7

7:                                                ; preds = %5
  %8 = getelementptr i8, ptr %0, i64 160
  %.val.i = load ptr, ptr %8, align 8, !tbaa !23
  %9 = zext nneg i32 %1 to i64
  %10 = getelementptr inbounds nuw i32, ptr %.val.i, i64 %9
  %11 = load i32, ptr %10, align 4, !tbaa !24
  %12 = sext i32 %11 to i64
  br label %Cba_FonObj.exit

Cba_FonObj.exit:                                  ; preds = %5, %7
  %13 = phi i64 [ %12, %7 ], [ 0, %5 ]
  %14 = getelementptr i8, ptr %0, i64 96
  %.val15 = load ptr, ptr %14, align 8, !tbaa !21
  %15 = getelementptr inbounds i8, ptr %.val15, i64 %13
  %16 = load i8, ptr %15, align 1, !tbaa !15
  %17 = icmp eq i8 %16, 88
  br i1 %17, label %Cba_NameIsLegalInVerilog.exit, label %18

18:                                               ; preds = %Cba_FonObj.exit
  %19 = getelementptr inbounds nuw i8, ptr %0, i64 264
  %20 = add nsw i32 %1, 1
  %21 = getelementptr inbounds nuw i8, ptr %0, i64 268
  %22 = load i32, ptr %21, align 4, !tbaa !22
  %.not.i.not.i.i = icmp slt i32 %1, %22
  br i1 %.not.i.not.i.i, label %Cba_FonName.exit, label %23

23:                                               ; preds = %18
  %24 = load i32, ptr %19, align 8, !tbaa !48
  %25 = shl nsw i32 %24, 1
  %.not.i.i = icmp slt i32 %1, %25
  %.not.i.i.not.i.i = icmp sgt i32 %24, %1
  br i1 %.not.i.i, label %38, label %26

26:                                               ; preds = %23
  br i1 %.not.i.i.not.i.i, label %Vec_IntGrow.exit.i.i.i, label %27

27:                                               ; preds = %26
  %28 = getelementptr inbounds nuw i8, ptr %0, i64 272
  %29 = load ptr, ptr %28, align 8, !tbaa !23
  %.not9.i.i.i.i = icmp eq ptr %29, null
  %30 = sext i32 %20 to i64
  %31 = shl nsw i64 %30, 2
  br i1 %.not9.i.i.i.i, label %34, label %32

32:                                               ; preds = %27
  %33 = tail call ptr @realloc(ptr noundef nonnull %29, i64 noundef %31) #17
  br label %36

34:                                               ; preds = %27
  %35 = tail call noalias ptr @malloc(i64 noundef %31) #18
  br label %36

36:                                               ; preds = %34, %32
  %37 = phi ptr [ %33, %32 ], [ %35, %34 ]
  store ptr %37, ptr %28, align 8, !tbaa !23
  br label %Vec_IntGrow.exit.sink.split.i.i.i

38:                                               ; preds = %23
  br i1 %.not.i.i.not.i.i, label %Vec_IntGrow.exit.i.i.i, label %39

39:                                               ; preds = %38
  %40 = getelementptr inbounds nuw i8, ptr %0, i64 272
  %41 = load ptr, ptr %40, align 8, !tbaa !23
  %.not9.i21.i.i.i = icmp eq ptr %41, null
  %42 = sext i32 %25 to i64
  %43 = shl nsw i64 %42, 2
  br i1 %.not9.i21.i.i.i, label %46, label %44

44:                                               ; preds = %39
  %45 = tail call ptr @realloc(ptr noundef nonnull %41, i64 noundef %43) #17
  br label %48

46:                                               ; preds = %39
  %47 = tail call noalias ptr @malloc(i64 noundef %43) #18
  br label %48

48:                                               ; preds = %46, %44
  %49 = phi ptr [ %45, %44 ], [ %47, %46 ]
  store ptr %49, ptr %40, align 8, !tbaa !23
  br label %Vec_IntGrow.exit.sink.split.i.i.i

Vec_IntGrow.exit.sink.split.i.i.i:                ; preds = %48, %36
  %.sink.i.i.i = phi i32 [ %25, %48 ], [ %20, %36 ]
  store i32 %.sink.i.i.i, ptr %19, align 8, !tbaa !48
  %.pre.i.i = load i32, ptr %21, align 4, !tbaa !22
  br label %Vec_IntGrow.exit.i.i.i

Vec_IntGrow.exit.i.i.i:                           ; preds = %Vec_IntGrow.exit.sink.split.i.i.i, %38, %26
  %50 = phi i32 [ %.pre.i.i, %Vec_IntGrow.exit.sink.split.i.i.i ], [ %22, %38 ], [ %22, %26 ]
  %.not3.i.i = icmp sgt i32 %50, %1
  br i1 %.not3.i.i, label %._crit_edge.i.i.i, label %.lr.ph.i.i.i

.lr.ph.i.i.i:                                     ; preds = %Vec_IntGrow.exit.i.i.i
  %51 = getelementptr inbounds nuw i8, ptr %0, i64 272
  %52 = load ptr, ptr %51, align 8, !tbaa !23
  %53 = sext i32 %50 to i64
  %54 = shl nsw i64 %53, 2
  %scevgep.i.i.i = getelementptr i8, ptr %52, i64 %54
  %55 = sub i32 %1, %50
  %56 = zext i32 %55 to i64
  %57 = shl nuw nsw i64 %56, 2
  %58 = add nuw nsw i64 %57, 4
  tail call void @llvm.memset.p0.i64(ptr noundef nonnull align 4 dereferenceable(1) %scevgep.i.i.i, i8 0, i64 %58, i1 false), !tbaa !24
  br label %._crit_edge.i.i.i

._crit_edge.i.i.i:                                ; preds = %.lr.ph.i.i.i, %Vec_IntGrow.exit.i.i.i
  store i32 %20, ptr %21, align 4, !tbaa !22
  br label %Cba_FonName.exit

Cba_FonName.exit:                                 ; preds = %18, %._crit_edge.i.i.i
  %59 = load i8, ptr %3, align 1, !tbaa !15
  %60 = icmp eq i8 %59, 92
  br i1 %60, label %Cba_NameIsLegalInVerilog.exit, label %61

61:                                               ; preds = %Cba_FonName.exit
  %62 = getelementptr i8, ptr %0, i64 272
  %.val.i.i = load ptr, ptr %62, align 8, !tbaa !23
  %63 = sext i32 %1 to i64
  %64 = getelementptr inbounds i32, ptr %.val.i.i, i64 %63
  %65 = load i32, ptr %64, align 4, !tbaa !24
  %66 = icmp slt i32 %65, 13
  br i1 %66, label %.loopexit, label %67

67:                                               ; preds = %61
  %68 = add i8 %59, -123
  %or.cond.i = icmp ult i8 %68, -26
  br i1 %or.cond.i, label %69, label %71

69:                                               ; preds = %67
  %70 = add i8 %59, -65
  %or.cond27.i = icmp ult i8 %70, 26
  %.not.i = icmp eq i8 %59, 95
  %or.cond31.i = or i1 %.not.i, %or.cond27.i
  br i1 %or.cond31.i, label %71, label %.loopexit

71:                                               ; preds = %69, %67
  %72 = getelementptr inbounds nuw i8, ptr %3, i64 1
  %73 = load i8, ptr %72, align 1, !tbaa !15
  %.not2434.i = icmp eq i8 %73, 0
  br i1 %.not2434.i, label %Cba_NameIsLegalInVerilog.exit, label %.lr.ph.i

.lr.ph.i:                                         ; preds = %71, %80
  %74 = phi i8 [ %82, %80 ], [ %73, %71 ]
  %75 = phi ptr [ %81, %80 ], [ %72, %71 ]
  %76 = and i8 %74, -33
  %77 = add i8 %76, -91
  %or.cond32.i = icmp ult i8 %77, -26
  %78 = add i8 %74, -58
  %or.cond30.i = icmp ult i8 %78, -10
  %or.cond33.i = and i1 %or.cond30.i, %or.cond32.i
  br i1 %or.cond33.i, label %79, label %80

79:                                               ; preds = %.lr.ph.i
  switch i8 %74, label %.loopexit [
    i8 95, label %80
    i8 36, label %80
  ]

80:                                               ; preds = %79, %79, %.lr.ph.i
  %81 = getelementptr inbounds nuw i8, ptr %75, i64 1
  %82 = load i8, ptr %81, align 1, !tbaa !15
  %.not24.i = icmp eq i8 %82, 0
  br i1 %.not24.i, label %Cba_NameIsLegalInVerilog.exit, label %.lr.ph.i, !llvm.loop !55

.loopexit:                                        ; preds = %79, %61, %69
  %.val = load ptr, ptr %0, align 8, !tbaa !49
  %83 = getelementptr i8, ptr %.val, i64 16
  %.val.val = load ptr, ptr %83, align 8, !tbaa !53
  %84 = tail call ptr @Abc_NamBuffer(ptr noundef %.val.val) #16
  %85 = tail call ptr (ptr, ptr, ...) @Vec_StrPrintF(ptr noundef %84, ptr noundef nonnull @.str.56, ptr noundef nonnull %3)
  br label %Cba_NameIsLegalInVerilog.exit

Cba_NameIsLegalInVerilog.exit:                    ; preds = %80, %71, %Cba_FonName.exit, %Cba_FonObj.exit, %2, %.loopexit
  %.0 = phi ptr [ %85, %.loopexit ], [ null, %2 ], [ %3, %Cba_FonObj.exit ], [ %3, %Cba_FonName.exit ], [ %3, %71 ], [ %3, %80 ]
  ret ptr %.0
}